Certificate:
    Data:
        Version: 3 (0x2)
        Serial Number:
            6a:c4:85:22:22:67:f7:13:ed:7d:ca:e9:1a:0c:ff:31:09:4d:f1:32
        Signature Algorithm: sha256WithRSAEncryption
        Issuer: C=AT, ST=Vienna, O=MIO-3, CN=CA
        Validity
            Not Before: Nov  9 23:44:07 2023 GMT
            Not After : Nov  8 23:44:07 2024 GMT
        Subject: C=AT, ST=Vienna, O=MIO-3, CN=acme-regal-1.local
        Subject Public Key Info:
            Public Key Algorithm: rsaEncryption
                Public-Key: (2048 bit)
                Modulus:
                    00:b9:1f:e7:9a:b2:88:d6:12:d5:27:b3:74:ed:37:
                    5a:bb:1d:5d:3d:ca:f8:63:c1:b0:86:b8:d5:88:b2:
                    49:e5:0c:86:71:a9:9f:8f:54:f1:86:e7:30:d8:bb:
                    73:9e:52:6f:71:ff:e4:90:be:e0:64:ec:1b:4e:22:
                    cf:40:de:c1:59:9e:ff:3d:67:26:7b:8a:bb:e5:a1:
                    ef:a7:8a:12:22:ed:c1:96:60:71:1d:a6:f1:8a:ff:
                    4c:fe:d5:f4:cc:fe:d4:26:9c:5c:de:fe:7a:53:38:
                    ad:e1:72:46:7b:97:7f:dc:c9:3b:49:87:e7:d1:ac:
                    5c:8b:2a:f9:16:e3:3a:fe:86:e6:fe:29:07:10:49:
                    fd:74:8f:09:f5:75:ad:ae:94:4c:e5:f5:ad:a9:cc:
                    44:73:65:31:8f:4a:fe:bf:d7:41:5f:cd:a2:21:2d:
                    28:64:2d:62:00:ff:c8:61:d1:05:ee:87:cc:03:aa:
                    48:9e:22:9d:c6:ce:30:f9:a7:a9:ea:94:48:af:65:
                    d9:78:67:24:29:43:92:fa:8a:7b:36:8e:75:85:62:
                    bb:da:73:a9:11:3d:74:4c:cb:2c:9d:a9:dd:21:8f:
                    47:cb:78:63:a0:e7:1b:73:3d:ec:1d:ba:e5:0a:6c:
                    81:52:dc:03:14:4d:ce:d2:a4:a6:42:41:46:fa:3d:
                    6a:39
                Exponent: 65537 (0x10001)
        X509v3 extensions:
            X509v3 Basic Constraints: 
                CA:FALSE
            X509v3 Subject Key Identifier: 
                77:54:00:F2:DD:0B:C9:48:6A:32:DE:44:13:F3:F6:DD:64:C0:10:41
            X509v3 Authority Key Identifier: 
                19:DC:99:45:38:70:D6:7B:9D:7E:F1:97:B3:5E:E8:FC:3B:10:CA:20
    Signature Algorithm: sha256WithRSAEncryption
    Signature Value:
        5d:84:d0:a6:91:ac:df:2e:60:14:02:26:26:cb:cb:da:28:7a:
        3a:7f:0e:06:32:27:f9:c2:0e:31:b7:8d:7e:e9:c2:62:37:04:
        e6:93:7a:4e:46:77:54:b8:b7:5b:8f:7d:95:f3:86:9f:40:08:
        6b:ed:b6:1b:e8:89:d1:d7:72:44:df:72:f6:3a:78:d9:69:83:
        29:8f:16:df:9c:e0:e1:7f:49:e4:46:fd:2d:27:12:a8:b7:6d:
        ca:72:37:38:7a:ce:f6:b9:e0:c1:36:82:56:68:4f:f6:a7:a4:
        2f:51:97:12:f0:fe:b1:d5:36:e6:55:be:7d:6e:3d:c9:4f:6f:
        fe:61:2d:6c:e2:38:db:dc:6b:70:c6:10:4e:c1:e4:12:0a:d8:
        41:f1:b2:d7:1b:c9:b7:21:1f:af:09:07:2b:ab:87:35:d4:11:
        78:18:de:11:62:5c:1d:27:65:13:8f:a3:ad:34:98:9d:01:88:
        4c:04:82:14:df:11:b5:07:25:f4:a9:09:bf:cb:9d:23:fa:9c:
        b2:4a:56:36:09:47:38:e9:82:36:2a:c7:8d:b5:77:a7:f4:d6:
        f5:0c:5c:bb:c0:7c:33:f0:13:e1:b0:aa:e1:eb:1c:f7:fa:ed:
        e3:02:0d:a8:5d:a0:44:fd:15:8a:e1:32:21:da:81:42:97:ed:
        14:c3:d5:b1
-----BEGIN CERTIFICATE-----
MIIDYTCCAkmgAwIBAgIUasSFIiJn9xPtfcrpGgz/MQlN8TIwDQYJKoZIhvcNAQEL
BQAwOzELMAkGA1UEBhMCQVQxDzANBgNVBAgMBlZpZW5uYTEOMAwGA1UECgwFTUlP
LTMxCzAJBgNVBAMMAkNBMB4XDTIzMTEwOTIzNDQwN1oXDTI0MTEwODIzNDQwN1ow
SzELMAkGA1UEBhMCQVQxDzANBgNVBAgMBlZpZW5uYTEOMAwGA1UECgwFTUlPLTMx
GzAZBgNVBAMMEmFjbWUtcmVnYWwtMS5sb2NhbDCCASIwDQYJKoZIhvcNAQEBBQAD
ggEPADCCAQoCggEBALkf55qyiNYS1SezdO03WrsdXT3K+GPBsIa41YiySeUMhnGp
n49U8YbnMNi7c55Sb3H/5JC+4GTsG04iz0DewVme/z1nJnuKu+Wh76eKEiLtwZZg
cR2m8Yr/TP7V9Mz+1CacXN7+elM4reFyRnuXf9zJO0mH59GsXIsq+RbjOv6G5v4p
BxBJ/XSPCfV1ra6UTOX1ranMRHNlMY9K/r/XQV/NoiEtKGQtYgD/yGHRBe6HzAOq
SJ4incbOMPmnqeqUSK9l2XhnJClDkvqKezaOdYViu9pzqRE9dEzLLJ2p3SGPR8t4
Y6DnG3M97B265QpsgVLcAxRNztKkpkJBRvo9ajkCAwEAAaNNMEswCQYDVR0TBAIw
ADAdBgNVHQ4EFgQUd1QA8t0LyUhqMt5EE/P23WTAEEEwHwYDVR0jBBgwFoAUGdyZ
RThw1nudfvGXs17o/DsQyiAwDQYJKoZIhvcNAQELBQADggEBAF2E0KaRrN8uYBQC
JibLy9ooejp/DgYyJ/nCDjG3jX7pwmI3BOaTek5Gd1S4t1uPfZXzhp9ACGvtthvo
idHXckTfcvY6eNlpgymPFt+c4OF/SeRG/S0nEqi3bcpyNzh6zva54ME2glZoT/an
pC9RlxLw/rHVNuZVvn1uPclPb/5hLWziONvca3DGEE7B5BIK2EHxstcbybchH68J
ByurhzXUEXgY3hFiXB0nZROPo600mJ0BiEwEghTfEbUHJfSpCb/LnSP6nLJKVjYJ
RzjpgjYqx421d6f01vUMXLvAfDPwE+GwquHrHPf67eMCDahdoET9FYrhMiHagUKX
7RTD1bE=
-----END CERTIFICATE-----
