Certificate:
    Data:
        Version: 3 (0x2)
        Serial Number:
            6a:c4:85:22:22:67:f7:13:ed:7d:ca:e9:1a:0c:ff:31:09:4d:f1:30
        Signature Algorithm: sha256WithRSAEncryption
        Issuer: C=AT, ST=Vienna, O=MIO-3, CN=CA
        Validity
            Not Before: Nov  9 23:18:36 2023 GMT
            Not After : Nov  8 23:18:36 2026 GMT
        Subject: C=AT, ST=Vienna, O=MIO-3, CN=CA
        Subject Public Key Info:
            Public Key Algorithm: rsaEncryption
                Public-Key: (2048 bit)
                Modulus:
                    00:a8:ea:97:c1:a5:50:ec:32:2a:1f:b3:a6:d0:3c:
                    46:b3:6b:8b:e9:4d:97:56:cd:e1:11:43:7a:04:e3:
                    99:97:71:fe:bf:f0:70:c0:94:07:2b:57:2f:a4:64:
                    d7:06:22:31:d2:7d:05:4a:fa:17:04:56:c7:8f:76:
                    98:28:8c:4e:33:48:a6:1d:92:61:b5:2e:98:2c:d1:
                    3c:c6:66:64:b2:34:ed:e9:16:20:d4:de:78:b9:c2:
                    65:26:1e:2b:cc:f5:f3:9f:90:10:d5:c0:c5:49:b8:
                    e1:25:1f:5d:4e:ef:72:98:b3:4f:67:ea:2c:42:71:
                    63:ce:0c:1e:27:58:1f:b1:3a:6c:66:08:8e:11:63:
                    c8:24:c9:b4:41:cd:f5:be:32:ec:25:2e:9d:e8:74:
                    ba:07:eb:f7:c7:f7:37:b4:fb:24:2a:83:ec:0e:54:
                    4c:af:88:1d:06:01:ee:61:d2:08:9d:b8:6c:25:ef:
                    94:78:f3:e1:bb:7a:1c:a3:5b:6b:09:85:91:8d:b1:
                    d9:11:7e:a4:99:7a:e0:3e:22:d4:40:29:4c:e1:e8:
                    77:d7:fb:43:5a:4b:bb:a0:94:63:87:6c:1f:0e:a3:
                    37:e7:0b:9c:7a:7c:3a:ab:5e:53:fa:77:56:ab:47:
                    ec:92:ee:0c:e1:76:e4:b0:b6:2a:0e:14:4a:f8:29:
                    73:21
                Exponent: 65537 (0x10001)
        X509v3 extensions:
            X509v3 Subject Key Identifier: 
                19:DC:99:45:38:70:D6:7B:9D:7E:F1:97:B3:5E:E8:FC:3B:10:CA:20
            X509v3 Authority Key Identifier: 
                19:DC:99:45:38:70:D6:7B:9D:7E:F1:97:B3:5E:E8:FC:3B:10:CA:20
            X509v3 Basic Constraints: critical
                CA:TRUE
    Signature Algorithm: sha256WithRSAEncryption
    Signature Value:
        4a:be:c0:05:40:c3:06:95:06:c5:91:57:ce:ad:a8:32:98:40:
        3f:98:a5:6d:aa:63:ca:a8:31:86:e2:0a:a5:52:04:48:fb:bc:
        3a:d4:25:5d:25:5a:fb:11:80:ac:ac:6b:04:1e:f3:a4:d4:d4:
        3a:d9:48:29:00:a6:70:44:64:c3:19:72:7e:8c:9d:6e:80:cd:
        7f:7f:72:78:ea:18:87:ac:98:de:1f:fe:bc:0d:20:41:b0:a7:
        92:2f:ff:1e:88:fa:a3:7a:a2:b0:e0:ec:07:93:9f:68:1d:c7:
        d3:04:69:b7:36:21:e7:eb:0c:01:44:2d:24:ed:15:e7:44:d8:
        f4:cf:14:95:c5:0f:c5:28:ec:d1:d0:bb:2a:bb:2d:e5:e1:c1:
        96:1f:e2:3d:6c:e1:3e:92:e3:5d:e4:f3:ec:59:78:25:c6:9d:
        e2:c4:f2:4c:2a:a7:bb:87:16:19:b8:72:1d:fa:d7:02:b6:50:
        ea:b9:9f:32:6f:05:57:ff:cb:37:6b:f5:b1:3a:3e:8d:ec:0c:
        e6:f7:44:9f:74:56:a3:49:b8:fb:58:aa:f4:66:16:7a:ab:1f:
        41:31:53:ae:e4:41:f8:69:25:89:10:e3:62:53:a8:11:e3:b0:
        e4:5d:7d:cb:7e:8a:26:90:f7:b1:ad:dc:8a:c3:f1:05:56:eb:
        7c:6b:be:e9
-----BEGIN CERTIFICATE-----
MIIDVzCCAj+gAwIBAgIUasSFIiJn9xPtfcrpGgz/MQlN8TAwDQYJKoZIhvcNAQEL
BQAwOzELMAkGA1UEBhMCQVQxDzANBgNVBAgMBlZpZW5uYTEOMAwGA1UECgwFTUlP
LTMxCzAJBgNVBAMMAkNBMB4XDTIzMTEwOTIzMTgzNloXDTI2MTEwODIzMTgzNlow
OzELMAkGA1UEBhMCQVQxDzANBgNVBAgMBlZpZW5uYTEOMAwGA1UECgwFTUlPLTMx
CzAJBgNVBAMMAkNBMIIBIjANBgkqhkiG9w0BAQEFAAOCAQ8AMIIBCgKCAQEAqOqX
waVQ7DIqH7Om0DxGs2uL6U2XVs3hEUN6BOOZl3H+v/BwwJQHK1cvpGTXBiIx0n0F
SvoXBFbHj3aYKIxOM0imHZJhtS6YLNE8xmZksjTt6RYg1N54ucJlJh4rzPXzn5AQ
1cDFSbjhJR9dTu9ymLNPZ+osQnFjzgweJ1gfsTpsZgiOEWPIJMm0Qc31vjLsJS6d
6HS6B+v3x/c3tPskKoPsDlRMr4gdBgHuYdIInbhsJe+UePPhu3oco1trCYWRjbHZ
EX6kmXrgPiLUQClM4eh31/tDWku7oJRjh2wfDqM35wucenw6q15T+ndWq0fsku4M
4XbksLYqDhRK+ClzIQIDAQABo1MwUTAdBgNVHQ4EFgQUGdyZRThw1nudfvGXs17o
/DsQyiAwHwYDVR0jBBgwFoAUGdyZRThw1nudfvGXs17o/DsQyiAwDwYDVR0TAQH/
BAUwAwEB/zANBgkqhkiG9w0BAQsFAAOCAQEASr7ABUDDBpUGxZFXzq2oMphAP5il
bapjyqgxhuIKpVIESPu8OtQlXSVa+xGArKxrBB7zpNTUOtlIKQCmcERkwxlyfoyd
boDNf39yeOoYh6yY3h/+vA0gQbCnki//Hoj6o3qisODsB5OfaB3H0wRptzYh5+sM
AUQtJO0V50TY9M8UlcUPxSjs0dC7Krst5eHBlh/iPWzhPpLjXeTz7Fl4Jcad4sTy
TCqnu4cWGbhyHfrXArZQ6rmfMm8FV//LN2v1sTo+jewM5vdEn3RWo0m4+1iq9GYW
eqsfQTFTruRB+GkliRDjYlOoEeOw5F19y36KJpD3sa3cisPxBVbrfGu+6Q==
-----END CERTIFICATE-----
