Certificate:
    Data:
        Version: 3 (0x2)
        Serial Number:
            6a:c4:85:22:22:67:f7:13:ed:7d:ca:e9:1a:0c:ff:31:09:4d:f1:31
        Signature Algorithm: sha256WithRSAEncryption
        Issuer: C=AT, ST=Vienna, O=MIO-3, CN=CA
        Validity
            Not Before: Nov  9 23:42:44 2023 GMT
            Not After : Nov  8 23:42:44 2024 GMT
        Subject: C=AT, ST=Vienna, O=MIO-3, CN=hostname.local
        Subject Public Key Info:
            Public Key Algorithm: rsaEncryption
                Public-Key: (2048 bit)
                Modulus:
                    00:bd:87:a6:51:b3:f6:4e:16:fb:00:39:74:1e:46:
                    e0:ab:46:15:9d:d4:95:64:eb:2f:f7:d1:bf:86:a3:
                    e7:c1:d4:5b:02:18:45:42:25:6a:70:8e:60:2f:60:
                    fd:21:40:6a:45:b6:d3:e6:7c:e2:a1:70:9b:81:da:
                    2c:8b:48:d8:f0:26:60:f5:c8:9c:5a:e2:a5:e1:db:
                    35:96:b6:0c:99:ff:f2:dc:28:64:3e:42:4f:18:aa:
                    f8:28:23:45:b2:1a:e8:a8:f3:48:dc:e3:30:2e:cc:
                    a5:b3:73:31:00:52:ca:81:09:62:2b:51:5a:bb:5f:
                    27:88:4c:1f:dd:01:05:9d:87:f2:77:48:1d:b8:9e:
                    53:6c:0c:2b:83:18:5e:c8:25:13:1e:9e:b1:28:99:
                    8c:7e:f3:93:15:25:ad:66:c1:b3:00:c6:9d:71:b8:
                    58:ab:09:74:df:53:53:c1:97:d3:24:79:71:75:20:
                    b5:5c:c4:d2:d4:0d:2d:df:46:ba:94:45:7d:7b:89:
                    74:33:6f:aa:0a:71:4c:e3:95:c2:e5:f9:dc:c7:df:
                    c0:12:25:e5:ca:77:ca:7f:b7:51:33:23:15:03:16:
                    e8:af:9d:2e:fb:d4:88:39:34:9d:c8:e6:cb:9d:c0:
                    bc:bc:f6:a6:3a:fa:60:10:01:6b:0d:c2:7e:29:fa:
                    e8:b5
                Exponent: 65537 (0x10001)
        X509v3 extensions:
            X509v3 Basic Constraints: 
                CA:FALSE
            X509v3 Subject Key Identifier: 
                1D:CB:8E:86:78:7F:BF:B3:46:1D:7D:28:9B:9D:88:DC:35:0C:A1:EB
            X509v3 Authority Key Identifier: 
                19:DC:99:45:38:70:D6:7B:9D:7E:F1:97:B3:5E:E8:FC:3B:10:CA:20
    Signature Algorithm: sha256WithRSAEncryption
    Signature Value:
        7e:1b:6d:6b:b5:ee:39:3a:38:cb:7b:3a:fe:48:91:00:97:8e:
        fd:45:0f:2d:dd:c4:8c:f1:3b:a7:3b:ea:2b:6d:d5:6a:f4:b2:
        39:f8:2c:73:96:10:a7:a1:67:2e:65:09:52:5b:8d:7a:65:82:
        4e:ff:c1:df:fe:0c:af:21:f5:18:57:40:e7:e2:b2:24:6a:67:
        73:2b:9b:ad:8e:64:ac:b2:f5:33:b7:83:98:8c:1e:f4:b0:c9:
        fc:0b:79:02:a7:da:8d:cf:59:4f:08:78:35:f5:20:bf:e7:75:
        62:7d:cc:5f:0d:d2:57:1e:84:ca:33:13:88:e2:b4:93:2e:4b:
        c3:16:61:52:04:65:ac:f6:46:18:b3:20:8a:cb:b7:44:34:70:
        31:e8:fd:8d:09:12:75:96:f4:8f:72:45:fa:e9:ca:49:94:a5:
        3f:86:2f:4e:e1:a5:9e:c8:94:4f:3f:eb:06:c5:3b:e5:f5:31:
        25:40:d1:a7:d8:87:89:7f:8d:41:c6:24:5a:b5:f4:2a:82:58:
        aa:32:00:91:25:58:fa:4d:9e:28:d6:cc:e8:d6:6b:d7:51:61:
        c2:55:67:7c:ba:55:00:0b:e3:9d:b6:1d:58:5e:c5:82:20:03:
        50:e7:10:24:f0:19:cb:24:bf:af:67:0f:0c:6f:e5:79:d9:93:
        05:33:0a:24
-----BEGIN CERTIFICATE-----
MIIDXTCCAkWgAwIBAgIUasSFIiJn9xPtfcrpGgz/MQlN8TEwDQYJKoZIhvcNAQEL
BQAwOzELMAkGA1UEBhMCQVQxDzANBgNVBAgMBlZpZW5uYTEOMAwGA1UECgwFTUlP
LTMxCzAJBgNVBAMMAkNBMB4XDTIzMTEwOTIzNDI0NFoXDTI0MTEwODIzNDI0NFow
RzELMAkGA1UEBhMCQVQxDzANBgNVBAgMBlZpZW5uYTEOMAwGA1UECgwFTUlPLTMx
FzAVBgNVBAMMDmhvc3RuYW1lLmxvY2FsMIIBIjANBgkqhkiG9w0BAQEFAAOCAQ8A
MIIBCgKCAQEAvYemUbP2Thb7ADl0Hkbgq0YVndSVZOsv99G/hqPnwdRbAhhFQiVq
cI5gL2D9IUBqRbbT5nzioXCbgdosi0jY8CZg9cicWuKl4ds1lrYMmf/y3ChkPkJP
GKr4KCNFshroqPNI3OMwLsyls3MxAFLKgQliK1Fau18niEwf3QEFnYfyd0gduJ5T
bAwrgxheyCUTHp6xKJmMfvOTFSWtZsGzAMadcbhYqwl031NTwZfTJHlxdSC1XMTS
1A0t30a6lEV9e4l0M2+qCnFM45XC5fncx9/AEiXlynfKf7dRMyMVAxbor50u+9SI
OTSdyObLncC8vPamOvpgEAFrDcJ+KfrotQIDAQABo00wSzAJBgNVHRMEAjAAMB0G
A1UdDgQWBBQdy46GeH+/s0YdfSibnYjcNQyh6zAfBgNVHSMEGDAWgBQZ3JlFOHDW
e51+8ZezXuj8OxDKIDANBgkqhkiG9w0BAQsFAAOCAQEAfhtta7XuOTo4y3s6/kiR
AJeO/UUPLd3EjPE7pzvqK23VavSyOfgsc5YQp6FnLmUJUluNemWCTv/B3/4MryH1
GFdA5+KyJGpncyubrY5krLL1M7eDmIwe9LDJ/At5Aqfajc9ZTwh4NfUgv+d1Yn3M
Xw3SVx6EyjMTiOK0ky5LwxZhUgRlrPZGGLMgisu3RDRwMej9jQkSdZb0j3JF+unK
SZSlP4YvTuGlnsiUTz/rBsU75fUxJUDRp9iHiX+NQcYkWrX0KoJYqjIAkSVY+k2e
KNbM6NZr11FhwlVnfLpVAAvjnbYdWF7FgiADUOcQJPAZyyS/r2cPDG/ledmTBTMK
JA==
-----END CERTIFICATE-----
