Certificate:
    Data:
        Version: 3 (0x2)
        Serial Number:
            6a:c4:85:22:22:67:f7:13:ed:7d:ca:e9:1a:0c:ff:31:09:4d:f1:36
        Signature Algorithm: sha256WithRSAEncryption
        Issuer: C=AT, ST=Vienna, O=MIO-3, CN=CA
        Validity
            Not Before: Dec  9 12:39:16 2023 GMT
            Not After : Dec  8 12:39:16 2024 GMT
        Subject: C=AT, ST=Vienna, O=MIO-3, CN=acme-in.local
        Subject Public Key Info:
            Public Key Algorithm: rsaEncryption
                Public-Key: (2048 bit)
                Modulus:
                    00:b0:0d:a2:e6:d8:9c:c8:ce:cf:8e:f8:81:ca:13:
                    5c:12:b0:6f:20:16:00:8a:3d:02:0a:40:d2:e6:92:
                    0b:2d:f7:a6:14:59:a3:ff:33:1e:dd:1c:09:39:77:
                    bf:cb:1c:7f:2f:85:4d:75:96:df:51:5e:e1:ba:ea:
                    df:94:20:dd:fe:83:bd:8a:2f:4e:e1:cf:16:02:42:
                    0c:80:53:5c:c9:17:b5:b8:94:e8:c3:ab:0b:f6:d9:
                    46:36:09:1b:ea:1c:71:36:e1:82:3a:18:99:a2:d9:
                    f6:b2:07:88:22:30:d2:51:06:92:58:c3:62:ab:b9:
                    12:63:d1:9f:40:ab:74:ae:3c:57:50:45:d0:94:b6:
                    4c:63:b4:72:2a:db:0f:d4:c8:37:a0:a4:ad:1f:95:
                    38:98:eb:15:f9:59:76:d3:45:5c:64:db:f1:62:90:
                    f9:75:07:79:1a:13:e5:e3:49:9a:ee:c3:06:4c:f8:
                    48:9a:4e:6a:b2:93:bf:f7:00:3d:b9:3d:aa:d6:51:
                    c1:7d:64:fb:ff:55:0b:ab:79:55:02:a4:d0:18:ac:
                    a2:6e:cd:f7:e4:74:b1:4c:60:46:d8:50:fa:d7:80:
                    3a:73:1b:5d:63:72:48:9e:3e:50:32:24:88:67:26:
                    07:f7:92:5b:30:bc:6b:6f:c0:9c:96:17:2b:55:e2:
                    3e:cd
                Exponent: 65537 (0x10001)
        X509v3 extensions:
            X509v3 Basic Constraints: 
                CA:FALSE
            X509v3 Subject Alternative Name: 
                DNS:acme-in.local, DNS:acme-in
            X509v3 Subject Key Identifier: 
                22:79:4B:B9:8F:8B:A3:C9:69:2E:B9:C0:B4:3F:AE:14:6F:26:1E:DF
            X509v3 Authority Key Identifier: 
                19:DC:99:45:38:70:D6:7B:9D:7E:F1:97:B3:5E:E8:FC:3B:10:CA:20
    Signature Algorithm: sha256WithRSAEncryption
    Signature Value:
        76:1c:5e:6f:4a:89:5d:87:a9:e6:d1:2a:83:c1:e9:11:58:26:
        0d:ec:5b:c8:66:ea:b0:ef:a5:4b:24:2d:ff:60:6b:23:eb:57:
        fc:a6:df:bc:27:82:1f:bc:66:dc:58:a0:c9:a6:96:8a:ae:bf:
        60:8e:0b:94:57:2b:e0:33:51:7e:27:68:fd:a0:c7:10:b4:db:
        83:fb:ac:53:9a:c9:cc:e2:3f:93:bc:a5:18:7a:ac:7d:4e:19:
        59:0f:82:e1:37:a4:d2:2b:a1:96:c8:a6:e5:1f:5a:1f:6c:4b:
        ed:f5:3a:32:db:dd:39:bb:db:60:59:6f:0e:32:55:50:91:17:
        8a:db:6a:b5:55:bc:34:fe:eb:aa:6d:96:d8:1b:e9:67:bd:d4:
        44:45:b1:9a:e6:13:cb:db:59:2c:81:83:5b:cd:64:97:16:3e:
        22:4c:37:5d:26:c8:45:4d:9a:a6:bc:66:cf:02:f4:65:f6:fa:
        d9:ef:44:28:b8:30:77:83:6e:e4:7b:34:f7:61:08:ac:94:19:
        a9:07:8b:55:5a:fa:18:1a:fc:31:0b:d5:8e:37:03:00:53:e4:
        43:71:7c:6f:4d:83:9d:07:87:db:b9:f2:d6:a4:97:d0:5f:17:
        e6:70:2f:18:53:d9:51:2d:7a:9f:a4:8f:99:9c:71:66:cd:b4:
        9b:3c:2d:b0
-----BEGIN CERTIFICATE-----
MIIDfzCCAmegAwIBAgIUasSFIiJn9xPtfcrpGgz/MQlN8TYwDQYJKoZIhvcNAQEL
BQAwOzELMAkGA1UEBhMCQVQxDzANBgNVBAgMBlZpZW5uYTEOMAwGA1UECgwFTUlP
LTMxCzAJBgNVBAMMAkNBMB4XDTIzMTIwOTEyMzkxNloXDTI0MTIwODEyMzkxNlow
RjELMAkGA1UEBhMCQVQxDzANBgNVBAgMBlZpZW5uYTEOMAwGA1UECgwFTUlPLTMx
FjAUBgNVBAMMDWFjbWUtaW4ubG9jYWwwggEiMA0GCSqGSIb3DQEBAQUAA4IBDwAw
ggEKAoIBAQCwDaLm2JzIzs+O+IHKE1wSsG8gFgCKPQIKQNLmkgst96YUWaP/Mx7d
HAk5d7/LHH8vhU11lt9RXuG66t+UIN3+g72KL07hzxYCQgyAU1zJF7W4lOjDqwv2
2UY2CRvqHHE24YI6GJmi2fayB4giMNJRBpJYw2KruRJj0Z9Aq3SuPFdQRdCUtkxj
tHIq2w/UyDegpK0flTiY6xX5WXbTRVxk2/FikPl1B3kaE+XjSZruwwZM+EiaTmqy
k7/3AD25ParWUcF9ZPv/VQureVUCpNAYrKJuzffkdLFMYEbYUPrXgDpzG11jckie
PlAyJIhnJgf3klswvGtvwJyWFytV4j7NAgMBAAGjcDBuMAkGA1UdEwQCMAAwIQYD
VR0RBBowGIINYWNtZS1pbi5sb2NhbIIHYWNtZS1pbjAdBgNVHQ4EFgQUInlLuY+L
o8lpLrnAtD+uFG8mHt8wHwYDVR0jBBgwFoAUGdyZRThw1nudfvGXs17o/DsQyiAw
DQYJKoZIhvcNAQELBQADggEBAHYcXm9KiV2HqebRKoPB6RFYJg3sW8hm6rDvpUsk
Lf9gayPrV/ym37wngh+8ZtxYoMmmloquv2COC5RXK+AzUX4naP2gxxC024P7rFOa
ycziP5O8pRh6rH1OGVkPguE3pNIroZbIpuUfWh9sS+31OjLb3Tm722BZbw4yVVCR
F4rbarVVvDT+66ptltgb6We91ERFsZrmE8vbWSyBg1vNZJcWPiJMN10myEVNmqa8
Zs8C9GX2+tnvRCi4MHeDbuR7NPdhCKyUGakHi1Va+hga/DEL1Y43AwBT5ENxfG9N
g50Hh9u58takl9BfF+ZwLxhT2VEtep+kj5mccWbNtJs8LbA=
-----END CERTIFICATE-----
