Certificate:
    Data:
        Version: 3 (0x2)
        Serial Number:
            6a:c4:85:22:22:67:f7:13:ed:7d:ca:e9:1a:0c:ff:31:09:4d:f1:33
        Signature Algorithm: sha256WithRSAEncryption
        Issuer: C=AT, ST=Vienna, O=MIO-3, CN=CA
        Validity
            Not Before: Nov 10 00:06:18 2023 GMT
            Not After : Nov  9 00:06:18 2024 GMT
        Subject: C=AT, ST=Vienna, O=MIO-3, CN=acme-regal-1.local
        Subject Public Key Info:
            Public Key Algorithm: rsaEncryption
                Public-Key: (2048 bit)
                Modulus:
                    00:b9:1f:e7:9a:b2:88:d6:12:d5:27:b3:74:ed:37:
                    5a:bb:1d:5d:3d:ca:f8:63:c1:b0:86:b8:d5:88:b2:
                    49:e5:0c:86:71:a9:9f:8f:54:f1:86:e7:30:d8:bb:
                    73:9e:52:6f:71:ff:e4:90:be:e0:64:ec:1b:4e:22:
                    cf:40:de:c1:59:9e:ff:3d:67:26:7b:8a:bb:e5:a1:
                    ef:a7:8a:12:22:ed:c1:96:60:71:1d:a6:f1:8a:ff:
                    4c:fe:d5:f4:cc:fe:d4:26:9c:5c:de:fe:7a:53:38:
                    ad:e1:72:46:7b:97:7f:dc:c9:3b:49:87:e7:d1:ac:
                    5c:8b:2a:f9:16:e3:3a:fe:86:e6:fe:29:07:10:49:
                    fd:74:8f:09:f5:75:ad:ae:94:4c:e5:f5:ad:a9:cc:
                    44:73:65:31:8f:4a:fe:bf:d7:41:5f:cd:a2:21:2d:
                    28:64:2d:62:00:ff:c8:61:d1:05:ee:87:cc:03:aa:
                    48:9e:22:9d:c6:ce:30:f9:a7:a9:ea:94:48:af:65:
                    d9:78:67:24:29:43:92:fa:8a:7b:36:8e:75:85:62:
                    bb:da:73:a9:11:3d:74:4c:cb:2c:9d:a9:dd:21:8f:
                    47:cb:78:63:a0:e7:1b:73:3d:ec:1d:ba:e5:0a:6c:
                    81:52:dc:03:14:4d:ce:d2:a4:a6:42:41:46:fa:3d:
                    6a:39
                Exponent: 65537 (0x10001)
        X509v3 extensions:
            X509v3 Basic Constraints: 
                CA:FALSE
            X509v3 Subject Alternative Name: 
                DNS:acme-regal-1.local
            X509v3 Subject Key Identifier: 
                77:54:00:F2:DD:0B:C9:48:6A:32:DE:44:13:F3:F6:DD:64:C0:10:41
            X509v3 Authority Key Identifier: 
                19:DC:99:45:38:70:D6:7B:9D:7E:F1:97:B3:5E:E8:FC:3B:10:CA:20
    Signature Algorithm: sha256WithRSAEncryption
    Signature Value:
        a6:8e:9e:ee:bb:f9:5a:b4:a7:8d:bf:2f:17:d6:c5:82:e0:3d:
        23:34:ff:23:30:d6:a1:bd:83:02:66:e4:f2:de:eb:99:94:a5:
        bd:1e:5d:e7:77:f5:72:e9:14:01:aa:75:83:19:88:4b:c7:c3:
        64:1c:98:40:e0:dc:50:c1:cd:4e:6b:ab:d6:42:bf:e4:11:91:
        21:32:4c:ea:75:c3:af:35:68:7b:ee:a0:64:0b:a1:54:b6:d4:
        39:1b:ac:eb:0f:6c:54:58:07:e9:eb:0e:83:3d:01:8d:84:05:
        f7:28:41:65:2a:79:5e:d3:0f:33:33:05:d6:66:a5:68:47:60:
        8c:3f:26:ec:7e:b9:4e:5c:0a:01:02:09:99:de:a9:e6:fa:c7:
        2b:51:29:01:98:88:2d:97:a4:05:8a:86:5e:2d:1a:d1:c0:f6:
        86:32:6b:bc:51:9a:3c:c7:50:09:18:62:41:c4:ab:86:ad:23:
        83:50:64:22:30:ee:50:5f:0d:5d:dc:c1:01:03:a2:53:d5:97:
        46:59:ca:37:01:4f:04:d0:b7:e3:cf:cd:fb:65:8b:67:c6:9e:
        27:79:c7:dd:42:4a:3e:bd:8b:0e:fc:a2:6c:b8:d0:9b:b2:09:
        bc:ae:c3:59:4b:5d:75:a7:76:1f:00:a8:82:9e:6f:36:4b:ea:
        e8:1b:19:f4
-----BEGIN CERTIFICATE-----
MIIDgDCCAmigAwIBAgIUasSFIiJn9xPtfcrpGgz/MQlN8TMwDQYJKoZIhvcNAQEL
BQAwOzELMAkGA1UEBhMCQVQxDzANBgNVBAgMBlZpZW5uYTEOMAwGA1UECgwFTUlP
LTMxCzAJBgNVBAMMAkNBMB4XDTIzMTExMDAwMDYxOFoXDTI0MTEwOTAwMDYxOFow
SzELMAkGA1UEBhMCQVQxDzANBgNVBAgMBlZpZW5uYTEOMAwGA1UECgwFTUlPLTMx
GzAZBgNVBAMMEmFjbWUtcmVnYWwtMS5sb2NhbDCCASIwDQYJKoZIhvcNAQEBBQAD
ggEPADCCAQoCggEBALkf55qyiNYS1SezdO03WrsdXT3K+GPBsIa41YiySeUMhnGp
n49U8YbnMNi7c55Sb3H/5JC+4GTsG04iz0DewVme/z1nJnuKu+Wh76eKEiLtwZZg
cR2m8Yr/TP7V9Mz+1CacXN7+elM4reFyRnuXf9zJO0mH59GsXIsq+RbjOv6G5v4p
BxBJ/XSPCfV1ra6UTOX1ranMRHNlMY9K/r/XQV/NoiEtKGQtYgD/yGHRBe6HzAOq
SJ4incbOMPmnqeqUSK9l2XhnJClDkvqKezaOdYViu9pzqRE9dEzLLJ2p3SGPR8t4
Y6DnG3M97B265QpsgVLcAxRNztKkpkJBRvo9ajkCAwEAAaNsMGowCQYDVR0TBAIw
ADAdBgNVHREEFjAUghJhY21lLXJlZ2FsLTEubG9jYWwwHQYDVR0OBBYEFHdUAPLd
C8lIajLeRBPz9t1kwBBBMB8GA1UdIwQYMBaAFBncmUU4cNZ7nX7xl7Ne6Pw7EMog
MA0GCSqGSIb3DQEBCwUAA4IBAQCmjp7uu/latKeNvy8X1sWC4D0jNP8jMNahvYMC
ZuTy3uuZlKW9Hl3nd/Vy6RQBqnWDGYhLx8NkHJhA4NxQwc1Oa6vWQr/kEZEhMkzq
dcOvNWh77qBkC6FUttQ5G6zrD2xUWAfp6w6DPQGNhAX3KEFlKnle0w8zMwXWZqVo
R2CMPybsfrlOXAoBAgmZ3qnm+scrUSkBmIgtl6QFioZeLRrRwPaGMmu8UZo8x1AJ
GGJBxKuGrSODUGQiMO5QXw1d3MEBA6JT1ZdGWco3AU8E0Lfjz837ZYtnxp4necfd
Qko+vYsO/KJsuNCbsgm8rsNZS111p3YfAKiCnm82S+roGxn0
-----END CERTIFICATE-----
