Certificate:
    Data:
        Version: 3 (0x2)
        Serial Number:
            6a:c4:85:22:22:67:f7:13:ed:7d:ca:e9:1a:0c:ff:31:09:4d:f1:35
        Signature Algorithm: sha256WithRSAEncryption
        Issuer: C=AT, ST=Vienna, O=MIO-3, CN=CA
        Validity
            Not Before: Dec  9 12:37:14 2023 GMT
            Not After : Dec  8 12:37:14 2024 GMT
        Subject: C=AT, ST=Vienna, O=MIO-3, CN=acme-regal-1.local
        Subject Public Key Info:
            Public Key Algorithm: rsaEncryption
                Public-Key: (2048 bit)
                Modulus:
                    00:b9:1f:e7:9a:b2:88:d6:12:d5:27:b3:74:ed:37:
                    5a:bb:1d:5d:3d:ca:f8:63:c1:b0:86:b8:d5:88:b2:
                    49:e5:0c:86:71:a9:9f:8f:54:f1:86:e7:30:d8:bb:
                    73:9e:52:6f:71:ff:e4:90:be:e0:64:ec:1b:4e:22:
                    cf:40:de:c1:59:9e:ff:3d:67:26:7b:8a:bb:e5:a1:
                    ef:a7:8a:12:22:ed:c1:96:60:71:1d:a6:f1:8a:ff:
                    4c:fe:d5:f4:cc:fe:d4:26:9c:5c:de:fe:7a:53:38:
                    ad:e1:72:46:7b:97:7f:dc:c9:3b:49:87:e7:d1:ac:
                    5c:8b:2a:f9:16:e3:3a:fe:86:e6:fe:29:07:10:49:
                    fd:74:8f:09:f5:75:ad:ae:94:4c:e5:f5:ad:a9:cc:
                    44:73:65:31:8f:4a:fe:bf:d7:41:5f:cd:a2:21:2d:
                    28:64:2d:62:00:ff:c8:61:d1:05:ee:87:cc:03:aa:
                    48:9e:22:9d:c6:ce:30:f9:a7:a9:ea:94:48:af:65:
                    d9:78:67:24:29:43:92:fa:8a:7b:36:8e:75:85:62:
                    bb:da:73:a9:11:3d:74:4c:cb:2c:9d:a9:dd:21:8f:
                    47:cb:78:63:a0:e7:1b:73:3d:ec:1d:ba:e5:0a:6c:
                    81:52:dc:03:14:4d:ce:d2:a4:a6:42:41:46:fa:3d:
                    6a:39
                Exponent: 65537 (0x10001)
        X509v3 extensions:
            X509v3 Basic Constraints: 
                CA:FALSE
            X509v3 Subject Alternative Name: 
                DNS:acme-regal-1.local, DNS:acme-regal-1
            X509v3 Subject Key Identifier: 
                77:54:00:F2:DD:0B:C9:48:6A:32:DE:44:13:F3:F6:DD:64:C0:10:41
            X509v3 Authority Key Identifier: 
                19:DC:99:45:38:70:D6:7B:9D:7E:F1:97:B3:5E:E8:FC:3B:10:CA:20
    Signature Algorithm: sha256WithRSAEncryption
    Signature Value:
        38:94:16:2d:ee:2f:4e:ed:20:69:ea:77:20:65:59:6e:e7:63:
        56:db:56:43:06:29:24:f4:fb:f1:5e:ff:27:3e:a2:3e:42:72:
        a7:c6:18:bc:ed:90:d3:24:86:c7:a5:9d:33:93:c7:52:bf:03:
        72:0c:34:24:fb:69:81:ad:b9:83:4c:fa:ff:93:e4:6b:fd:d3:
        de:ae:d9:59:e3:41:5b:71:62:f8:91:98:4d:c9:e2:2c:a0:a5:
        f8:17:8a:f2:3d:a2:11:f0:1e:a3:ac:3f:c3:bd:07:29:63:67:
        9c:df:01:50:e1:41:ec:c9:60:10:3c:1f:59:24:66:46:b2:75:
        99:06:be:af:18:a9:19:52:d0:31:a7:95:64:58:52:f3:80:d7:
        14:21:d7:89:22:66:d7:ab:9b:f7:95:95:3b:ba:cd:c0:cb:ea:
        66:10:84:4c:7e:27:cd:ac:c6:6c:8f:26:76:a6:16:d3:32:db:
        96:9c:b9:63:6a:49:e2:94:6d:5f:37:41:f3:ab:72:d1:69:89:
        cc:79:e1:83:83:b1:d2:e7:62:49:53:18:c5:84:04:63:fa:56:
        68:1b:11:f0:ee:c5:cb:16:de:b0:3a:fc:5c:5e:4b:28:c7:d9:
        c4:e4:f3:c9:72:5a:e6:e2:8c:69:fa:a0:a1:0f:2d:02:ce:cb:
        74:e7:4b:bf
-----BEGIN CERTIFICATE-----
MIIDjjCCAnagAwIBAgIUasSFIiJn9xPtfcrpGgz/MQlN8TUwDQYJKoZIhvcNAQEL
BQAwOzELMAkGA1UEBhMCQVQxDzANBgNVBAgMBlZpZW5uYTEOMAwGA1UECgwFTUlP
LTMxCzAJBgNVBAMMAkNBMB4XDTIzMTIwOTEyMzcxNFoXDTI0MTIwODEyMzcxNFow
SzELMAkGA1UEBhMCQVQxDzANBgNVBAgMBlZpZW5uYTEOMAwGA1UECgwFTUlPLTMx
GzAZBgNVBAMMEmFjbWUtcmVnYWwtMS5sb2NhbDCCASIwDQYJKoZIhvcNAQEBBQAD
ggEPADCCAQoCggEBALkf55qyiNYS1SezdO03WrsdXT3K+GPBsIa41YiySeUMhnGp
n49U8YbnMNi7c55Sb3H/5JC+4GTsG04iz0DewVme/z1nJnuKu+Wh76eKEiLtwZZg
cR2m8Yr/TP7V9Mz+1CacXN7+elM4reFyRnuXf9zJO0mH59GsXIsq+RbjOv6G5v4p
BxBJ/XSPCfV1ra6UTOX1ranMRHNlMY9K/r/XQV/NoiEtKGQtYgD/yGHRBe6HzAOq
SJ4incbOMPmnqeqUSK9l2XhnJClDkvqKezaOdYViu9pzqRE9dEzLLJ2p3SGPR8t4
Y6DnG3M97B265QpsgVLcAxRNztKkpkJBRvo9ajkCAwEAAaN6MHgwCQYDVR0TBAIw
ADArBgNVHREEJDAighJhY21lLXJlZ2FsLTEubG9jYWyCDGFjbWUtcmVnYWwtMTAd
BgNVHQ4EFgQUd1QA8t0LyUhqMt5EE/P23WTAEEEwHwYDVR0jBBgwFoAUGdyZRThw
1nudfvGXs17o/DsQyiAwDQYJKoZIhvcNAQELBQADggEBADiUFi3uL07tIGnqdyBl
WW7nY1bbVkMGKST0+/Fe/yc+oj5CcqfGGLztkNMkhselnTOTx1K/A3IMNCT7aYGt
uYNM+v+T5Gv9096u2VnjQVtxYviRmE3J4iygpfgXivI9ohHwHqOsP8O9ByljZ5zf
AVDhQezJYBA8H1kkZkaydZkGvq8YqRlS0DGnlWRYUvOA1xQh14kiZterm/eVlTu6
zcDL6mYQhEx+J82sxmyPJnamFtMy25acuWNqSeKUbV83QfOrctFpicx54YODsdLn
YklTGMWEBGP6VmgbEfDuxcsW3rA6/FxeSyjH2cTk88lyWubijGn6oKEPLQLOy3Tn
S78=
-----END CERTIFICATE-----
